target datalayout = "e-m:e-p270:32:32-p271:32:32-p272:64:64-i64:64-i128:128-f80:128-n8:16:32:64-S128"
target triple = "x86_64-pc-linux-gnu"

%struct.__sigset_t = type { [16 x i64] }
%struct.Latch = type { i32, i32, i8, i32 }

@.str.1 = private unnamed_addr constant [11 x i8] c"miscinit.c\00", align 1
@BlockSig = external global %struct.__sigset_t, align 8
@MyBackendType = dso_local global i32 0, align 4
@my_exec_path = external global [0 x i8], align 1
@.str.3 = private unnamed_addr constant [44 x i8] c"%s: could not locate my own executable path\00", align 1
@__func__.InitStandaloneProcess = private unnamed_addr constant [22 x i8] c"InitStandaloneProcess\00", align 1
@pkglib_path = external global [0 x i8], align 1
@MyLatch = external global ptr, align 8
@LocalLatchData = internal global %struct.Latch zeroinitializer, align 4

; Function Attrs: nounwind uwtable
define dso_local void @InitProcessLocalLatch() #0 {
  store ptr @LocalLatchData, ptr @MyLatch, align 8
  %1 = load ptr, ptr @MyLatch, align 8
  call void @InitLatch(ptr noundef %1)
  ret void
}

; Function Attrs: nounwind uwtable
define dso_local void @InitStandaloneProcess(ptr noundef %0) #0 {
  %2 = alloca ptr, align 8
  store ptr %0, ptr %2, align 8
  store i32 8, ptr @MyBackendType, align 4
  call void @InitProcessGlobals()
  call void @InitializeLatchSupport()
  call void @InitProcessLocalLatch()
  call void @InitializeLatchWaitSet()
  call void @pqinitmask()
  %3 = call i32 @sigprocmask(i32 noundef 2, ptr noundef @BlockSig, ptr noundef null) #12
  %4 = load i8, ptr @my_exec_path, align 1
  %5 = sext i8 %4 to i32
  %6 = icmp eq i32 %5, 0
  br i1 %6, label %7, label %23

7:                                                ; preds = %1
  %8 = load ptr, ptr %2, align 8
  %9 = call i32 @find_my_exec(ptr noundef %8, ptr noundef @my_exec_path)
  %10 = icmp slt i32 %9, 0
  br i1 %10, label %11, label %22

11:                                               ; preds = %7
  br label %12

12:                                               ; preds = %11
  br i1 true, label %13, label %15

13:                                               ; preds = %12
  %14 = call zeroext i1 @errstart_cold(i32 noundef 22, ptr noundef null) #13
  br i1 %14, label %17, label %20

15:                                               ; preds = %12
  %16 = call zeroext i1 @errstart(i32 noundef 22, ptr noundef null)
  br i1 %16, label %17, label %20

17:                                               ; preds = %15, %13
  %18 = load ptr, ptr %2, align 8
  %19 = call i32 (ptr, ...) @errmsg_internal(ptr noundef @.str.3, ptr noundef %18)
  call void @errfinish(ptr noundef @.str.1, i32 noundef 207, ptr noundef @__func__.InitStandaloneProcess)
  br label %20

20:                                               ; preds = %17, %15, %13
  unreachable

21:                                               ; No predecessors!
  br label %22

22:                                               ; preds = %21, %7
  br label %23

23:                                               ; preds = %22, %1
  %24 = load i8, ptr @pkglib_path, align 1
  %25 = sext i8 %24 to i32
  %26 = icmp eq i32 %25, 0
  br i1 %26, label %27, label %28

27:                                               ; preds = %23
  call void @get_pkglib_path(ptr noundef @my_exec_path, ptr noundef @pkglib_path)
  br label %28

28:                                               ; preds = %27, %23
  ret void
}