; Function Attrs: nounwind uwtable
define dso_local void @InitStandaloneProcess(ptr noundef %0) local_unnamed_addr #0 {
  store i32 8, ptr @MyBackendType, align 4
  tail call void @InitProcessGlobals() #22
  tail call void @InitializeLatchSupport() #22
  store ptr @LocalLatchData, ptr @MyLatch, align 8
  tail call void @InitLatch(ptr noundef nonnull @LocalLatchData) #22
  tail call void @InitializeLatchWaitSet() #22
  tail call void @pqinitmask() #22
  %2 = tail call i32 @sigprocmask(i32 noundef 2, ptr noundef nonnull @BlockSig, ptr noundef null) #22
  %3 = load i8, ptr @my_exec_path, align 1
  %4 = icmp eq i8 %3, 0
  br i1 %4, label %5, label %11

5:                                                ; preds = %1
  %6 = tail call i32 @find_my_exec(ptr noundef %0, ptr noundef nonnull @my_exec_path) #22
  %7 = icmp slt i32 %6, 0
  br i1 %7, label %8, label %11

8:                                                ; preds = %5
  %9 = tail call zeroext i1 @errstart_cold(i32 noundef 22, ptr noundef null) #23
  tail call void @llvm.assume(i1 %9)
  %10 = tail call i32 (ptr, ...) @errmsg_internal(ptr noundef nonnull @.str.3, ptr noundef %0) #22
  tail call void @errfinish(ptr noundef nonnull @.str.1, i32 noundef 207, ptr noundef nonnull @__func__.InitStandaloneProcess) #22
  unreachable

11:                                               ; preds = %5, %1
  %12 = load i8, ptr @pkglib_path, align 1
  %13 = icmp eq i8 %12, 0
  br i1 %13, label %14, label %15

14:                                               ; preds = %11
  tail call void @get_pkglib_path(ptr noundef nonnull @my_exec_path, ptr noundef nonnull @pkglib_path) #22
  br label %15

15:                                               ; preds = %14, %11
  ret void
}